target datalayout = "e-m:e-p270:32:32-p271:32:32-p272:64:64-i64:64-i128:128-f80:128-n8:16:32:64-S128"
target triple = "x86_64-pc-linux-gnu"

%struct.Argon2_Context = type { ptr, i32, ptr, i32, ptr, i32, ptr, i32, ptr, i32, i32, i32, i32, i32, i32 }

; Function Attrs: alwaysinline nounwind
define internal ptr @memset.inline(ptr nonnull %0, i32 %1, i64 %2) #5 {
  %4 = alloca ptr, align 8
  %5 = alloca i32, align 4
  %6 = alloca i64, align 8
  store ptr %0, ptr %4, align 8
  store i32 %1, ptr %5, align 4
  store i64 %2, ptr %6, align 8
  %7 = load ptr, ptr %4, align 8
  %8 = load i32, ptr %5, align 4
  %9 = load i64, ptr %6, align 8
  %10 = load ptr, ptr %4, align 8
  %11 = call i64 @llvm.objectsize.i64.p0(ptr %10, i1 false, i1 true, i1 true)
  %12 = call ptr @__memset_chk(ptr noundef %7, i32 noundef %8, i64 noundef %9, i64 noundef %11) #8
  ret ptr %12
}

; Function Attrs: nounwind ssp uwtable
define hidden i32 @_sodium_argon2_verify(ptr noundef %0, ptr noundef %1, i64 noundef %2, i32 noundef %3) #0 {
  %5 = alloca i32, align 4
  %6 = alloca ptr, align 8
  %7 = alloca ptr, align 8
  %8 = alloca i64, align 8
  %9 = alloca i32, align 4
  %10 = alloca %struct.Argon2_Context, align 8
  %11 = alloca ptr, align 8
  %12 = alloca i32, align 4
  %13 = alloca i32, align 4
  %14 = alloca i64, align 8
  %15 = alloca i32, align 4
  store ptr %0, ptr %6, align 8
  store ptr %1, ptr %7, align 8
  store i64 %2, ptr %8, align 8
  store i32 %3, ptr %9, align 4
  call void @llvm.lifetime.start.p0(i64 96, ptr %10) #8
  call void @llvm.lifetime.start.p0(i64 8, ptr %11) #8
  call void @llvm.lifetime.start.p0(i64 4, ptr %12) #8
  call void @llvm.lifetime.start.p0(i64 4, ptr %13) #8
  call void @llvm.lifetime.start.p0(i64 8, ptr %14) #8
  %16 = call ptr @memset.inline(ptr noundef %10, i32 noundef 0, i64 noundef 96) #8
  %17 = getelementptr inbounds nuw %struct.Argon2_Context, ptr %10, i32 0, i32 2
  store ptr null, ptr %17, align 8
  %18 = getelementptr inbounds nuw %struct.Argon2_Context, ptr %10, i32 0, i32 3
  store i32 0, ptr %18, align 8
  %19 = getelementptr inbounds nuw %struct.Argon2_Context, ptr %10, i32 0, i32 6
  store ptr null, ptr %19, align 8
  %20 = getelementptr inbounds nuw %struct.Argon2_Context, ptr %10, i32 0, i32 7
  store i32 0, ptr %20, align 8
  %21 = load ptr, ptr %6, align 8
  %22 = call i64 @strlen(ptr noundef %21) #10
  store i64 %22, ptr %14, align 8
  %23 = load i64, ptr %14, align 8
  %24 = icmp ugt i64 %23, 4294967295
  br i1 %24, label %25, label %26

25:                                               ; preds = %4
  store i32 -34, ptr %5, align 4
  store i32 1, ptr %15, align 4
  br label %139

26:                                               ; preds = %4
  %27 = load i64, ptr %14, align 8
  %28 = trunc i64 %27 to i32
  %29 = getelementptr inbounds nuw %struct.Argon2_Context, ptr %10, i32 0, i32 9
  store i32 %28, ptr %29, align 8
  %30 = load i64, ptr %14, align 8
  %31 = trunc i64 %30 to i32
  %32 = getelementptr inbounds nuw %struct.Argon2_Context, ptr %10, i32 0, i32 5
  store i32 %31, ptr %32, align 8
  %33 = load i64, ptr %14, align 8
  %34 = trunc i64 %33 to i32
  %35 = getelementptr inbounds nuw %struct.Argon2_Context, ptr %10, i32 0, i32 1
  store i32 %34, ptr %35, align 8
  %36 = getelementptr inbounds nuw %struct.Argon2_Context, ptr %10, i32 0, i32 9
  %37 = load i32, ptr %36, align 8
  %38 = zext i32 %37 to i64
  %39 = call noalias ptr @malloc(i64 noundef %38) #9
  %40 = getelementptr inbounds nuw %struct.Argon2_Context, ptr %10, i32 0, i32 8
  store ptr %39, ptr %40, align 8
  %41 = getelementptr inbounds nuw %struct.Argon2_Context, ptr %10, i32 0, i32 5
  %42 = load i32, ptr %41, align 8
  %43 = zext i32 %42 to i64
  %44 = call noalias ptr @malloc(i64 noundef %43) #9
  %45 = getelementptr inbounds nuw %struct.Argon2_Context, ptr %10, i32 0, i32 4
  store ptr %44, ptr %45, align 8
  %46 = getelementptr inbounds nuw %struct.Argon2_Context, ptr %10, i32 0, i32 1
  %47 = load i32, ptr %46, align 8
  %48 = zext i32 %47 to i64
  %49 = call noalias ptr @malloc(i64 noundef %48) #9
  %50 = getelementptr inbounds nuw %struct.Argon2_Context, ptr %10, i32 0, i32 0
  store ptr %49, ptr %50, align 8
  %51 = getelementptr inbounds nuw %struct.Argon2_Context, ptr %10, i32 0, i32 0
  %52 = load ptr, ptr %51, align 8
  %53 = icmp ne ptr %52, null
  br i1 %53, label %54, label %62

54:                                               ; preds = %26
  %55 = getelementptr inbounds nuw %struct.Argon2_Context, ptr %10, i32 0, i32 4
  %56 = load ptr, ptr %55, align 8
  %57 = icmp ne ptr %56, null
  br i1 %57, label %58, label %62

58:                                               ; preds = %54
  %59 = getelementptr inbounds nuw %struct.Argon2_Context, ptr %10, i32 0, i32 8
  %60 = load ptr, ptr %59, align 8
  %61 = icmp ne ptr %60, null
  br i1 %61, label %69, label %62

62:                                               ; preds = %58, %54, %26
  %63 = getelementptr inbounds nuw %struct.Argon2_Context, ptr %10, i32 0, i32 8
  %64 = load ptr, ptr %63, align 8
  call void @free(ptr noundef %64) #8
  %65 = getelementptr inbounds nuw %struct.Argon2_Context, ptr %10, i32 0, i32 4
  %66 = load ptr, ptr %65, align 8
  call void @free(ptr noundef %66) #8
  %67 = getelementptr inbounds nuw %struct.Argon2_Context, ptr %10, i32 0, i32 0
  %68 = load ptr, ptr %67, align 8
  call void @free(ptr noundef %68) #8
  store i32 -22, ptr %5, align 4
  store i32 1, ptr %15, align 4
  br label %139

69:                                               ; preds = %58
  %70 = getelementptr inbounds nuw %struct.Argon2_Context, ptr %10, i32 0, i32 1
  %71 = load i32, ptr %70, align 8
  %72 = zext i32 %71 to i64
  %73 = call noalias ptr @malloc(i64 noundef %72) #9
  store ptr %73, ptr %11, align 8
  %74 = load ptr, ptr %11, align 8
  %75 = icmp ne ptr %74, null
  br i1 %75, label %83, label %76

76:                                               ; preds = %69
  %77 = getelementptr inbounds nuw %struct.Argon2_Context, ptr %10, i32 0, i32 8
  %78 = load ptr, ptr %77, align 8
  call void @free(ptr noundef %78) #8
  %79 = getelementptr inbounds nuw %struct.Argon2_Context, ptr %10, i32 0, i32 4
  %80 = load ptr, ptr %79, align 8
  call void @free(ptr noundef %80) #8
  %81 = getelementptr inbounds nuw %struct.Argon2_Context, ptr %10, i32 0, i32 0
  %82 = load ptr, ptr %81, align 8
  call void @free(ptr noundef %82) #8
  store i32 -22, ptr %5, align 4
  store i32 1, ptr %15, align 4
  br label %139

83:                                               ; preds = %69
  %84 = load ptr, ptr %6, align 8
  %85 = load i32, ptr %9, align 4
  %86 = call i32 @_sodium_argon2_decode_string(ptr noundef %10, ptr noundef %84, i32 noundef %85)
  store i32 %86, ptr %12, align 4
  %87 = load i32, ptr %12, align 4
  %88 = icmp ne i32 %87, 0
  br i1 %88, label %89, label %98

89:                                               ; preds = %83
  %90 = getelementptr inbounds nuw %struct.Argon2_Context, ptr %10, i32 0, i32 8
  %91 = load ptr, ptr %90, align 8
  call void @free(ptr noundef %91) #8
  %92 = getelementptr inbounds nuw %struct.Argon2_Context, ptr %10, i32 0, i32 4
  %93 = load ptr, ptr %92, align 8
  call void @free(ptr noundef %93) #8
  %94 = getelementptr inbounds nuw %struct.Argon2_Context, ptr %10, i32 0, i32 0
  %95 = load ptr, ptr %94, align 8
  call void @free(ptr noundef %95) #8
  %96 = load ptr, ptr %11, align 8
  call void @free(ptr noundef %96) #8
  %97 = load i32, ptr %12, align 4
  store i32 %97, ptr %5, align 4
  store i32 1, ptr %15, align 4
  br label %139

98:                                               ; preds = %83
  %99 = getelementptr inbounds nuw %struct.Argon2_Context, ptr %10, i32 0, i32 10
  %100 = load i32, ptr %99, align 4
  %101 = getelementptr inbounds nuw %struct.Argon2_Context, ptr %10, i32 0, i32 11
  %102 = load i32, ptr %101, align 8
  %103 = getelementptr inbounds nuw %struct.Argon2_Context, ptr %10, i32 0, i32 13
  %104 = load i32, ptr %103, align 8
  %105 = load ptr, ptr %7, align 8
  %106 = load i64, ptr %8, align 8
  %107 = getelementptr inbounds nuw %struct.Argon2_Context, ptr %10, i32 0, i32 4
  %108 = load ptr, ptr %107, align 8
  %109 = getelementptr inbounds nuw %struct.Argon2_Context, ptr %10, i32 0, i32 5
  %110 = load i32, ptr %109, align 8
  %111 = zext i32 %110 to i64
  %112 = load ptr, ptr %11, align 8
  %113 = getelementptr inbounds nuw %struct.Argon2_Context, ptr %10, i32 0, i32 1
  %114 = load i32, ptr %113, align 8
  %115 = zext i32 %114 to i64
  %116 = load i32, ptr %9, align 4
  %117 = call i32 @_sodium_argon2_hash(i32 noundef %100, i32 noundef %102, i32 noundef %104, ptr noundef %105, i64 noundef %106, ptr noundef %108, i64 noundef %111, ptr noundef %112, i64 noundef %115, ptr noundef null, i64 noundef 0, i32 noundef %116)
  store i32 %117, ptr %13, align 4
  %118 = getelementptr inbounds nuw %struct.Argon2_Context, ptr %10, i32 0, i32 8
  %119 = load ptr, ptr %118, align 8
  call void @free(ptr noundef %119) #8
  %120 = getelementptr inbounds nuw %struct.Argon2_Context, ptr %10, i32 0, i32 4
  %121 = load ptr, ptr %120, align 8
  call void @free(ptr noundef %121) #8
  %122 = load i32, ptr %13, align 4
  %123 = icmp eq i32 %122, 0
  br i1 %123, label %124, label %134

124:                                              ; preds = %98
  %125 = load ptr, ptr %11, align 8
  %126 = getelementptr inbounds nuw %struct.Argon2_Context, ptr %10, i32 0, i32 0
  %127 = load ptr, ptr %126, align 8
  %128 = getelementptr inbounds nuw %struct.Argon2_Context, ptr %10, i32 0, i32 1
  %129 = load i32, ptr %128, align 8
  %130 = zext i32 %129 to i64
  %131 = call i32 @sodium_memcmp(ptr noundef %125, ptr noundef %127, i64 noundef %130)
  %132 = icmp ne i32 %131, 0
  br i1 %132, label %133, label %134

133:                                              ; preds = %124
  store i32 -35, ptr %13, align 4
  br label %134

134:                                              ; preds = %133, %124, %98
  %135 = load ptr, ptr %11, align 8
  call void @free(ptr noundef %135) #8
  %136 = getelementptr inbounds nuw %struct.Argon2_Context, ptr %10, i32 0, i32 0
  %137 = load ptr, ptr %136, align 8
  call void @free(ptr noundef %137) #8
  %138 = load i32, ptr %13, align 4
  store i32 %138, ptr %5, align 4
  store i32 1, ptr %15, align 4
  br label %139

139:                                              ; preds = %134, %89, %76, %62, %25
  call void @llvm.lifetime.end.p0(i64 8, ptr %14) #8
  call void @llvm.lifetime.end.p0(i64 4, ptr %13) #8
  call void @llvm.lifetime.end.p0(i64 4, ptr %12) #8
  call void @llvm.lifetime.end.p0(i64 8, ptr %11) #8
  call void @llvm.lifetime.end.p0(i64 96, ptr %10) #8
  %140 = load i32, ptr %5, align 4
  ret i32 %140
}