; Function Attrs: nounwind ssp uwtable
define hidden i32 @_sodium_argon2_verify(ptr noundef %0, ptr noundef %1, i64 noundef %2, i32 noundef %3) local_unnamed_addr #0 {
  %5 = alloca %struct.Argon2_Context, align 8
  call void @llvm.lifetime.start.p0(i64 96, ptr nonnull %5) #9
  %6 = getelementptr inbounds nuw i8, ptr %5, i64 8
  call void @llvm.memset.p0.i64(ptr noundef nonnull align 8 dereferenceable(88) %6, i8 0, i64 88, i1 false)
  %7 = tail call i64 @strlen(ptr noundef nonnull dereferenceable(1) %0) #11
  %8 = icmp ugt i64 %7, 4294967295
  br i1 %8, label %55, label %9

9:                                                ; preds = %4
  %10 = trunc nuw i64 %7 to i32
  %11 = getelementptr inbounds nuw i8, ptr %5, i64 72
  store i32 %10, ptr %11, align 8
  %12 = getelementptr inbounds nuw i8, ptr %5, i64 40
  store i32 %10, ptr %12, align 8
  %13 = getelementptr inbounds nuw i8, ptr %5, i64 8
  store i32 %10, ptr %13, align 8
  %14 = tail call noalias ptr @malloc(i64 noundef %7) #10
  %15 = getelementptr inbounds nuw i8, ptr %5, i64 64
  store ptr %14, ptr %15, align 8
  %16 = tail call noalias ptr @malloc(i64 noundef %7) #10
  %17 = getelementptr inbounds nuw i8, ptr %5, i64 32
  store ptr %16, ptr %17, align 8
  %18 = tail call noalias ptr @malloc(i64 noundef %7) #10
  store ptr %18, ptr %5, align 8
  %19 = icmp ne ptr %18, null
  %20 = icmp ne ptr %16, null
  %or.cond = and i1 %20, %19
  %21 = icmp ne ptr %14, null
  %or.cond5 = and i1 %21, %or.cond
  br i1 %or.cond5, label %23, label %22

22:                                               ; preds = %9
  tail call void @free(ptr noundef %14) #9
  tail call void @free(ptr noundef %16) #9
  tail call void @free(ptr noundef %18) #9
  br label %55

23:                                               ; preds = %9
  %24 = tail call noalias ptr @malloc(i64 noundef %7) #10
  %.not = icmp eq ptr %24, null
  br i1 %.not, label %25, label %26

25:                                               ; preds = %23
  tail call void @free(ptr noundef nonnull %14) #9
  tail call void @free(ptr noundef nonnull %16) #9
  tail call void @free(ptr noundef nonnull %18) #9
  br label %55

26:                                               ; preds = %23
  %27 = call i32 @_sodium_argon2_decode_string(ptr noundef nonnull %5, ptr noundef nonnull %0, i32 noundef %3) #9
  %.not29 = icmp eq i32 %27, 0
  br i1 %.not29, label %32, label %28

28:                                               ; preds = %26
  %29 = load ptr, ptr %15, align 8
  call void @free(ptr noundef %29) #9
  %30 = load ptr, ptr %17, align 8
  call void @free(ptr noundef %30) #9
  %31 = load ptr, ptr %5, align 8
  call void @free(ptr noundef %31) #9
  call void @free(ptr noundef nonnull %24) #9
  br label %55

32:                                               ; preds = %26
  %33 = getelementptr inbounds nuw i8, ptr %5, i64 76
  %34 = load i32, ptr %33, align 4
  %35 = getelementptr inbounds nuw i8, ptr %5, i64 80
  %36 = load i32, ptr %35, align 8
  %37 = getelementptr inbounds nuw i8, ptr %5, i64 88
  %38 = load i32, ptr %37, align 8
  %39 = load ptr, ptr %17, align 8
  %40 = load i32, ptr %12, align 8
  %41 = zext i32 %40 to i64
  %42 = load i32, ptr %13, align 8
  %43 = zext i32 %42 to i64
  %44 = call i32 @_sodium_argon2_hash(i32 noundef %34, i32 noundef %36, i32 noundef %38, ptr noundef %1, i64 noundef %2, ptr noundef %39, i64 noundef %41, ptr noundef nonnull %24, i64 noundef %43, ptr noundef null, i64 noundef 0, i32 noundef %3)
  %45 = load ptr, ptr %15, align 8
  call void @free(ptr noundef %45) #9
  %46 = load ptr, ptr %17, align 8
  call void @free(ptr noundef %46) #9
  %47 = icmp eq i32 %44, 0
  br i1 %47, label %48, label %53

48:                                               ; preds = %32
  %49 = load ptr, ptr %5, align 8
  %50 = load i32, ptr %13, align 8
  %51 = zext i32 %50 to i64
  %52 = call i32 @sodium_memcmp(ptr noundef nonnull %24, ptr noundef %49, i64 noundef %51) #9
  %.not30 = icmp eq i32 %52, 0
  %spec.select = select i1 %.not30, i32 0, i32 -35
  br label %53

53:                                               ; preds = %48, %32
  %.024 = phi i32 [ %44, %32 ], [ %spec.select, %48 ]
  call void @free(ptr noundef nonnull %24) #9
  %54 = load ptr, ptr %5, align 8
  call void @free(ptr noundef %54) #9
  br label %55

55:                                               ; preds = %4, %53, %28, %25, %22
  %.0 = phi i32 [ %27, %28 ], [ %.024, %53 ], [ -22, %25 ], [ -22, %22 ], [ -34, %4 ]
  call void @llvm.lifetime.end.p0(i64 96, ptr nonnull %5) #9
  ret i32 %.0
}